target datalayout = "e-m:e-p270:32:32-p271:32:32-p272:64:64-i64:64-i128:128-f80:128-n8:16:32:64-S128"
target triple = "x86_64-unknown-linux-gnu"

%struct.gpr_timespec = type { i64, i32, i32 }
%struct.grpc_jwt_claims = type { ptr, ptr, ptr, ptr, %struct.gpr_timespec, %struct.gpr_timespec, %struct.gpr_timespec, %"class.grpc_core::ManualConstructor" }
%"class.grpc_core::ManualConstructor" = type { [56 x i8] }

@.str.15 = private unnamed_addr constant [141 x i8] c"generated/home/dtcxzyw/WorkSpace/Projects/compilers/llvm-opt-benchmark/bench/grpc/grpc/src/core/lib/security/credentials/jwt/jwt_verifier.cc\00", align 1
@.str.16 = private unnamed_addr constant [18 x i8] c"claims != nullptr\00", align 1
@grpc_jwt_verifier_clock_skew = global %struct.gpr_timespec { i64 60, i32 0, i32 3 }, align 8
@.str.17 = private unnamed_addr constant [22 x i8] c"JWT is not valid yet.\00", align 1
@.str.18 = private unnamed_addr constant [16 x i8] c"JWT is expired.\00", align 1
@.str.19 = private unnamed_addr constant [66 x i8] c"Email issuer (%s) cannot assert another subject (%s) than itself.\00", align 1
@.str.20 = private unnamed_addr constant [45 x i8] c"Audience mismatch: expected %s and found %s.\00", align 1
@.str.21 = private unnamed_addr constant [5 x i8] c"NULL\00", align 1
@.str.22 = private unnamed_addr constant [19 x i8] c"dot > email_domain\00", align 1

; Function Attrs: mustprogress uwtable
define noundef ptr @_Z28grpc_jwt_issuer_email_domainPKc(ptr noundef %issuer) #5 {
entry:
  %retval = alloca ptr, align 8
  %issuer.addr = alloca ptr, align 8
  %at_sign = alloca ptr, align 8
  %email_domain = alloca ptr, align 8
  %dot = alloca ptr, align 8
  store ptr %issuer, ptr %issuer.addr, align 8
  %0 = load ptr, ptr %issuer.addr, align 8
  %call = call noundef ptr @strchr(ptr noundef %0, i32 noundef 64) #16
  store ptr %call, ptr %at_sign, align 8
  %1 = load ptr, ptr %at_sign, align 8
  %cmp = icmp eq ptr %1, null
  br i1 %cmp, label %if.then, label %if.end

if.then:                                          ; preds = %entry
  store ptr null, ptr %retval, align 8
  br label %return

if.end:                                           ; preds = %entry
  %2 = load ptr, ptr %at_sign, align 8
  %add.ptr = getelementptr inbounds i8, ptr %2, i64 1
  store ptr %add.ptr, ptr %email_domain, align 8
  %3 = load ptr, ptr %email_domain, align 8
  %4 = load i8, ptr %3, align 1
  %conv = sext i8 %4 to i32
  %cmp1 = icmp eq i32 %conv, 0
  br i1 %cmp1, label %if.then2, label %if.end3

if.then2:                                         ; preds = %if.end
  store ptr null, ptr %retval, align 8
  br label %return

if.end3:                                          ; preds = %if.end
  %5 = load ptr, ptr %email_domain, align 8
  %call4 = call noundef ptr @strrchr(ptr noundef %5, i32 noundef 46) #16
  store ptr %call4, ptr %dot, align 8
  %6 = load ptr, ptr %dot, align 8
  %cmp5 = icmp eq ptr %6, null
  br i1 %cmp5, label %if.then7, label %lor.lhs.false

lor.lhs.false:                                    ; preds = %if.end3
  %7 = load ptr, ptr %dot, align 8
  %8 = load ptr, ptr %email_domain, align 8
  %cmp6 = icmp eq ptr %7, %8
  br i1 %cmp6, label %if.then7, label %if.end8

if.then7:                                         ; preds = %lor.lhs.false, %if.end3
  %9 = load ptr, ptr %email_domain, align 8
  store ptr %9, ptr %retval, align 8
  br label %return

if.end8:                                          ; preds = %lor.lhs.false
  br label %do.body

do.body:                                          ; preds = %if.end8
  %10 = load ptr, ptr %dot, align 8
  %11 = load ptr, ptr %email_domain, align 8
  %cmp9 = icmp ugt ptr %10, %11
  %lnot = xor i1 %cmp9, true
  br i1 %lnot, label %if.then11, label %if.end12

if.then11:                                        ; preds = %do.body
  call void @gpr_assertion_failed(ptr noundef @.str.15, i32 noundef 828, ptr noundef @.str.22) #17
  unreachable

if.end12:                                         ; preds = %do.body
  br label %do.end

do.end:                                           ; preds = %if.end12
  %12 = load ptr, ptr %email_domain, align 8
  %13 = load ptr, ptr %dot, align 8
  %14 = load ptr, ptr %email_domain, align 8
  %sub.ptr.lhs.cast = ptrtoint ptr %13 to i64
  %sub.ptr.rhs.cast = ptrtoint ptr %14 to i64
  %sub.ptr.sub = sub i64 %sub.ptr.lhs.cast, %sub.ptr.rhs.cast
  %call13 = call noundef ptr @_Z11gpr_memrchrPKvim(ptr noundef %12, i32 noundef 46, i64 noundef %sub.ptr.sub)
  store ptr %call13, ptr %dot, align 8
  %15 = load ptr, ptr %dot, align 8
  %cmp14 = icmp eq ptr %15, null
  br i1 %cmp14, label %if.then15, label %if.end16

if.then15:                                        ; preds = %do.end
  %16 = load ptr, ptr %email_domain, align 8
  store ptr %16, ptr %retval, align 8
  br label %return

if.end16:                                         ; preds = %do.end
  %17 = load ptr, ptr %dot, align 8
  %add.ptr17 = getelementptr inbounds i8, ptr %17, i64 1
  store ptr %add.ptr17, ptr %retval, align 8
  br label %return

return:                                           ; preds = %if.end16, %if.then15, %if.then7, %if.then2, %if.then
  %18 = load ptr, ptr %retval, align 8
  ret ptr %18
}

; Function Attrs: mustprogress uwtable
define noundef i32 @_Z21grpc_jwt_claims_checkPK15grpc_jwt_claimsPKc(ptr noundef %claims, ptr noundef %audience) #5 {
entry:
  %retval = alloca i32, align 4
  %claims.addr = alloca ptr, align 8
  %audience.addr = alloca ptr, align 8
  %skewed_now = alloca %struct.gpr_timespec, align 8
  %audience_ok = alloca i32, align 4
  %ref.tmp = alloca %struct.gpr_timespec, align 8
  %agg.tmp = alloca %struct.gpr_timespec, align 8
  %agg.tmp1 = alloca %struct.gpr_timespec, align 8
  %agg.tmp3 = alloca %struct.gpr_timespec, align 8
  %agg.tmp4 = alloca %struct.gpr_timespec, align 8
  %ref.tmp9 = alloca %struct.gpr_timespec, align 8
  %agg.tmp10 = alloca %struct.gpr_timespec, align 8
  %agg.tmp12 = alloca %struct.gpr_timespec, align 8
  %agg.tmp14 = alloca %struct.gpr_timespec, align 8
  %agg.tmp15 = alloca %struct.gpr_timespec, align 8
  store ptr %claims, ptr %claims.addr, align 8
  store ptr %audience, ptr %audience.addr, align 8
  br label %do.body

do.body:                                          ; preds = %entry
  %0 = load ptr, ptr %claims.addr, align 8
  %cmp = icmp ne ptr %0, null
  %lnot = xor i1 %cmp, true
  br i1 %lnot, label %if.then, label %if.end

if.then:                                          ; preds = %do.body
  call void @gpr_assertion_failed(ptr noundef @.str.15, i32 noundef 318, ptr noundef @.str.16) #17
  unreachable

if.end:                                           ; preds = %do.body
  br label %do.end

do.end:                                           ; preds = %if.end
  %call = call { i64, i64 } @gpr_now(i32 noundef 1)
  %1 = getelementptr inbounds { i64, i64 }, ptr %agg.tmp, i32 0, i32 0
  %2 = extractvalue { i64, i64 } %call, 0
  store i64 %2, ptr %1, align 8
  %3 = getelementptr inbounds { i64, i64 }, ptr %agg.tmp, i32 0, i32 1
  %4 = extractvalue { i64, i64 } %call, 1
  store i64 %4, ptr %3, align 8
  call void @llvm.memcpy.p0.p0.i64(ptr align 8 %agg.tmp1, ptr align 8 @grpc_jwt_verifier_clock_skew, i64 16, i1 false)
  %5 = getelementptr inbounds { i64, i64 }, ptr %agg.tmp, i32 0, i32 0
  %6 = load i64, ptr %5, align 8
  %7 = getelementptr inbounds { i64, i64 }, ptr %agg.tmp, i32 0, i32 1
  %8 = load i64, ptr %7, align 8
  %9 = getelementptr inbounds { i64, i64 }, ptr %agg.tmp1, i32 0, i32 0
  %10 = load i64, ptr %9, align 8
  %11 = getelementptr inbounds { i64, i64 }, ptr %agg.tmp1, i32 0, i32 1
  %12 = load i64, ptr %11, align 8
  %call2 = call { i64, i64 } @gpr_time_add(i64 %6, i64 %8, i64 %10, i64 %12)
  %13 = getelementptr inbounds { i64, i64 }, ptr %ref.tmp, i32 0, i32 0
  %14 = extractvalue { i64, i64 } %call2, 0
  store i64 %14, ptr %13, align 8
  %15 = getelementptr inbounds { i64, i64 }, ptr %ref.tmp, i32 0, i32 1
  %16 = extractvalue { i64, i64 } %call2, 1
  store i64 %16, ptr %15, align 8
  call void @llvm.memcpy.p0.p0.i64(ptr align 8 %skewed_now, ptr align 8 %ref.tmp, i64 16, i1 false)
  call void @llvm.memcpy.p0.p0.i64(ptr align 8 %agg.tmp3, ptr align 8 %skewed_now, i64 16, i1 false)
  %17 = load ptr, ptr %claims.addr, align 8
  %nbf = getelementptr inbounds %struct.grpc_jwt_claims, ptr %17, i32 0, i32 6
  call void @llvm.memcpy.p0.p0.i64(ptr align 8 %agg.tmp4, ptr align 8 %nbf, i64 16, i1 false)
  %18 = getelementptr inbounds { i64, i64 }, ptr %agg.tmp3, i32 0, i32 0
  %19 = load i64, ptr %18, align 8
  %20 = getelementptr inbounds { i64, i64 }, ptr %agg.tmp3, i32 0, i32 1
  %21 = load i64, ptr %20, align 8
  %22 = getelementptr inbounds { i64, i64 }, ptr %agg.tmp4, i32 0, i32 0
  %23 = load i64, ptr %22, align 8
  %24 = getelementptr inbounds { i64, i64 }, ptr %agg.tmp4, i32 0, i32 1
  %25 = load i64, ptr %24, align 8
  %call5 = call i32 @gpr_time_cmp(i64 %19, i64 %21, i64 %23, i64 %25)
  %cmp6 = icmp slt i32 %call5, 0
  br i1 %cmp6, label %if.then7, label %if.end8

if.then7:                                         ; preds = %do.end
  call void (ptr, i32, i32, ptr, ...) @gpr_log(ptr noundef @.str.15, i32 noundef 323, i32 noundef 2, ptr noundef @.str.17)
  store i32 5, ptr %retval, align 4
  br label %return

if.end8:                                          ; preds = %do.end
  %call11 = call { i64, i64 } @gpr_now(i32 noundef 1)
  %26 = getelementptr inbounds { i64, i64 }, ptr %agg.tmp10, i32 0, i32 0
  %27 = extractvalue { i64, i64 } %call11, 0
  store i64 %27, ptr %26, align 8
  %28 = getelementptr inbounds { i64, i64 }, ptr %agg.tmp10, i32 0, i32 1
  %29 = extractvalue { i64, i64 } %call11, 1
  store i64 %29, ptr %28, align 8
  call void @llvm.memcpy.p0.p0.i64(ptr align 8 %agg.tmp12, ptr align 8 @grpc_jwt_verifier_clock_skew, i64 16, i1 false)
  %30 = getelementptr inbounds { i64, i64 }, ptr %agg.tmp10, i32 0, i32 0
  %31 = load i64, ptr %30, align 8
  %32 = getelementptr inbounds { i64, i64 }, ptr %agg.tmp10, i32 0, i32 1
  %33 = load i64, ptr %32, align 8
  %34 = getelementptr inbounds { i64, i64 }, ptr %agg.tmp12, i32 0, i32 0
  %35 = load i64, ptr %34, align 8
  %36 = getelementptr inbounds { i64, i64 }, ptr %agg.tmp12, i32 0, i32 1
  %37 = load i64, ptr %36, align 8
  %call13 = call { i64, i64 } @gpr_time_sub(i64 %31, i64 %33, i64 %35, i64 %37)
  %38 = getelementptr inbounds { i64, i64 }, ptr %ref.tmp9, i32 0, i32 0
  %39 = extractvalue { i64, i64 } %call13, 0
  store i64 %39, ptr %38, align 8
  %40 = getelementptr inbounds { i64, i64 }, ptr %ref.tmp9, i32 0, i32 1
  %41 = extractvalue { i64, i64 } %call13, 1
  store i64 %41, ptr %40, align 8
  call void @llvm.memcpy.p0.p0.i64(ptr align 8 %skewed_now, ptr align 8 %ref.tmp9, i64 16, i1 false)
  call void @llvm.memcpy.p0.p0.i64(ptr align 8 %agg.tmp14, ptr align 8 %skewed_now, i64 16, i1 false)
  %42 = load ptr, ptr %claims.addr, align 8
  %exp = getelementptr inbounds %struct.grpc_jwt_claims, ptr %42, i32 0, i32 5
  call void @llvm.memcpy.p0.p0.i64(ptr align 8 %agg.tmp15, ptr align 8 %exp, i64 16, i1 false)
  %43 = getelementptr inbounds { i64, i64 }, ptr %agg.tmp14, i32 0, i32 0
  %44 = load i64, ptr %43, align 8
  %45 = getelementptr inbounds { i64, i64 }, ptr %agg.tmp14, i32 0, i32 1
  %46 = load i64, ptr %45, align 8
  %47 = getelementptr inbounds { i64, i64 }, ptr %agg.tmp15, i32 0, i32 0
  %48 = load i64, ptr %47, align 8
  %49 = getelementptr inbounds { i64, i64 }, ptr %agg.tmp15, i32 0, i32 1
  %50 = load i64, ptr %49, align 8
  %call16 = call i32 @gpr_time_cmp(i64 %44, i64 %46, i64 %48, i64 %50)
  %cmp17 = icmp sgt i32 %call16, 0
  br i1 %cmp17, label %if.then18, label %if.end19

if.then18:                                        ; preds = %if.end8
  call void (ptr, i32, i32, ptr, ...) @gpr_log(ptr noundef @.str.15, i32 noundef 329, i32 noundef 2, ptr noundef @.str.18)
  store i32 5, ptr %retval, align 4
  br label %return

if.end19:                                         ; preds = %if.end8
  %51 = load ptr, ptr %claims.addr, align 8
  %iss = getelementptr inbounds %struct.grpc_jwt_claims, ptr %51, i32 0, i32 1
  %52 = load ptr, ptr %iss, align 8
  %call20 = call noundef ptr @_Z28grpc_jwt_issuer_email_domainPKc(ptr noundef %52)
  %cmp21 = icmp ne ptr %call20, null
  br i1 %cmp21, label %land.lhs.true, label %if.end31

land.lhs.true:                                    ; preds = %if.end19
  %53 = load ptr, ptr %claims.addr, align 8
  %sub = getelementptr inbounds %struct.grpc_jwt_claims, ptr %53, i32 0, i32 0
  %54 = load ptr, ptr %sub, align 8
  %cmp22 = icmp ne ptr %54, null
  br i1 %cmp22, label %land.lhs.true23, label %if.end31

land.lhs.true23:                                  ; preds = %land.lhs.true
  %55 = load ptr, ptr %claims.addr, align 8
  %iss24 = getelementptr inbounds %struct.grpc_jwt_claims, ptr %55, i32 0, i32 1
  %56 = load ptr, ptr %iss24, align 8
  %57 = load ptr, ptr %claims.addr, align 8
  %sub25 = getelementptr inbounds %struct.grpc_jwt_claims, ptr %57, i32 0, i32 0
  %58 = load ptr, ptr %sub25, align 8
  %call26 = call i32 @strcmp(ptr noundef %56, ptr noundef %58) #16
  %cmp27 = icmp ne i32 %call26, 0
  br i1 %cmp27, label %if.then28, label %if.end31

if.then28:                                        ; preds = %land.lhs.true23
  %59 = load ptr, ptr %claims.addr, align 8
  %iss29 = getelementptr inbounds %struct.grpc_jwt_claims, ptr %59, i32 0, i32 1
  %60 = load ptr, ptr %iss29, align 8
  %61 = load ptr, ptr %claims.addr, align 8
  %sub30 = getelementptr inbounds %struct.grpc_jwt_claims, ptr %61, i32 0, i32 0
  %62 = load ptr, ptr %sub30, align 8
  call void (ptr, i32, i32, ptr, ...) @gpr_log(ptr noundef @.str.15, i32 noundef 338, i32 noundef 2, ptr noundef @.str.19, ptr noundef %60, ptr noundef %62)
  store i32 6, ptr %retval, align 4
  br label %return

if.end31:                                         ; preds = %land.lhs.true23, %land.lhs.true, %if.end19
  %63 = load ptr, ptr %audience.addr, align 8
  %cmp32 = icmp eq ptr %63, null
  br i1 %cmp32, label %if.then33, label %if.else

if.then33:                                        ; preds = %if.end31
  %64 = load ptr, ptr %claims.addr, align 8
  %aud = getelementptr inbounds %struct.grpc_jwt_claims, ptr %64, i32 0, i32 2
  %65 = load ptr, ptr %aud, align 8
  %cmp34 = icmp eq ptr %65, null
  %conv = zext i1 %cmp34 to i32
  store i32 %conv, ptr %audience_ok, align 4
  br label %if.end41

if.else:                                          ; preds = %if.end31
  %66 = load ptr, ptr %claims.addr, align 8
  %aud35 = getelementptr inbounds %struct.grpc_jwt_claims, ptr %66, i32 0, i32 2
  %67 = load ptr, ptr %aud35, align 8
  %cmp36 = icmp ne ptr %67, null
  br i1 %cmp36, label %land.rhs, label %land.end

land.rhs:                                         ; preds = %if.else
  %68 = load ptr, ptr %audience.addr, align 8
  %69 = load ptr, ptr %claims.addr, align 8
  %aud37 = getelementptr inbounds %struct.grpc_jwt_claims, ptr %69, i32 0, i32 2
  %70 = load ptr, ptr %aud37, align 8
  %call38 = call i32 @strcmp(ptr noundef %68, ptr noundef %70) #16
  %cmp39 = icmp eq i32 %call38, 0
  br label %land.end

land.end:                                         ; preds = %land.rhs, %if.else
  %71 = phi i1 [ false, %if.else ], [ %cmp39, %land.rhs ]
  %conv40 = zext i1 %71 to i32
  store i32 %conv40, ptr %audience_ok, align 4
  br label %if.end41

if.end41:                                         ; preds = %land.end, %if.then33
  %72 = load i32, ptr %audience_ok, align 4
  %tobool = icmp ne i32 %72, 0
  br i1 %tobool, label %if.end51, label %if.then42

if.then42:                                        ; preds = %if.end41
  %73 = load ptr, ptr %audience.addr, align 8
  %cmp43 = icmp eq ptr %73, null
  br i1 %cmp43, label %cond.true, label %cond.false

cond.true:                                        ; preds = %if.then42
  br label %cond.end

cond.false:                                       ; preds = %if.then42
  %74 = load ptr, ptr %audience.addr, align 8
  br label %cond.end

cond.end:                                         ; preds = %cond.false, %cond.true
  %cond = phi ptr [ @.str.21, %cond.true ], [ %74, %cond.false ]
  %75 = load ptr, ptr %claims.addr, align 8
  %aud44 = getelementptr inbounds %struct.grpc_jwt_claims, ptr %75, i32 0, i32 2
  %76 = load ptr, ptr %aud44, align 8
  %cmp45 = icmp eq ptr %76, null
  br i1 %cmp45, label %cond.true46, label %cond.false47

cond.true46:                                      ; preds = %cond.end
  br label %cond.end49

cond.false47:                                     ; preds = %cond.end
  %77 = load ptr, ptr %claims.addr, align 8
  %aud48 = getelementptr inbounds %struct.grpc_jwt_claims, ptr %77, i32 0, i32 2
  %78 = load ptr, ptr %aud48, align 8
  br label %cond.end49

cond.end49:                                       ; preds = %cond.false47, %cond.true46
  %cond50 = phi ptr [ @.str.21, %cond.true46 ], [ %78, %cond.false47 ]
  call void (ptr, i32, i32, ptr, ...) @gpr_log(ptr noundef @.str.15, i32 noundef 350, i32 noundef 2, ptr noundef @.str.20, ptr noundef %cond, ptr noundef %cond50)
  store i32 3, ptr %retval, align 4
  br label %return

if.end51:                                         ; preds = %if.end41
  store i32 0, ptr %retval, align 4
  br label %return

return:                                           ; preds = %if.end51, %cond.end49, %if.then28, %if.then18, %if.then7
  %79 = load i32, ptr %retval, align 4
  ret i32 %79
}