; Function Attrs: mustprogress uwtable
define noundef i32 @_Z21grpc_jwt_claims_checkPK15grpc_jwt_claimsPKc(ptr noundef readonly %claims, ptr noundef %audience) local_unnamed_addr #4 {
entry:
  %cmp.not = icmp eq ptr %claims, null
  br i1 %cmp.not, label %if.then, label %do.end

if.then:                                          ; preds = %entry
  tail call void @gpr_assertion_failed(ptr noundef nonnull @.str.15, i32 noundef 318, ptr noundef nonnull @.str.16) #25
  unreachable

do.end:                                           ; preds = %entry
  %call = tail call { i64, i64 } @gpr_now(i32 noundef 1)
  %0 = extractvalue { i64, i64 } %call, 0
  %1 = extractvalue { i64, i64 } %call, 1
  %agg.tmp1.sroa.0.0.copyload = load i64, ptr @grpc_jwt_verifier_clock_skew, align 8
  %agg.tmp1.sroa.2.0.copyload = load i64, ptr getelementptr inbounds (%struct.gpr_timespec, ptr @grpc_jwt_verifier_clock_skew, i64 0, i32 1), align 8
  %call2 = tail call { i64, i64 } @gpr_time_add(i64 %0, i64 %1, i64 %agg.tmp1.sroa.0.0.copyload, i64 %agg.tmp1.sroa.2.0.copyload)
  %2 = extractvalue { i64, i64 } %call2, 0
  %3 = extractvalue { i64, i64 } %call2, 1
  %nbf = getelementptr inbounds i8, ptr %claims, i64 64
  %agg.tmp4.sroa.0.0.copyload = load i64, ptr %nbf, align 8
  %agg.tmp4.sroa.2.0.nbf.sroa_idx = getelementptr inbounds i8, ptr %claims, i64 72
  %agg.tmp4.sroa.2.0.copyload = load i64, ptr %agg.tmp4.sroa.2.0.nbf.sroa_idx, align 8
  %call5 = tail call i32 @gpr_time_cmp(i64 %2, i64 %3, i64 %agg.tmp4.sroa.0.0.copyload, i64 %agg.tmp4.sroa.2.0.copyload)
  %cmp6 = icmp slt i32 %call5, 0
  br i1 %cmp6, label %if.then7, label %if.end8

if.then7:                                         ; preds = %do.end
  tail call void (ptr, i32, i32, ptr, ...) @gpr_log(ptr noundef nonnull @.str.15, i32 noundef 323, i32 noundef 2, ptr noundef nonnull @.str.17)
  br label %return

if.end8:                                          ; preds = %do.end
  %call11 = tail call { i64, i64 } @gpr_now(i32 noundef 1)
  %4 = extractvalue { i64, i64 } %call11, 0
  %5 = extractvalue { i64, i64 } %call11, 1
  %agg.tmp12.sroa.0.0.copyload = load i64, ptr @grpc_jwt_verifier_clock_skew, align 8
  %agg.tmp12.sroa.2.0.copyload = load i64, ptr getelementptr inbounds (%struct.gpr_timespec, ptr @grpc_jwt_verifier_clock_skew, i64 0, i32 1), align 8
  %call13 = tail call { i64, i64 } @gpr_time_sub(i64 %4, i64 %5, i64 %agg.tmp12.sroa.0.0.copyload, i64 %agg.tmp12.sroa.2.0.copyload)
  %6 = extractvalue { i64, i64 } %call13, 0
  %7 = extractvalue { i64, i64 } %call13, 1
  %exp = getelementptr inbounds i8, ptr %claims, i64 48
  %agg.tmp15.sroa.0.0.copyload = load i64, ptr %exp, align 8
  %agg.tmp15.sroa.2.0.exp.sroa_idx = getelementptr inbounds i8, ptr %claims, i64 56
  %agg.tmp15.sroa.2.0.copyload = load i64, ptr %agg.tmp15.sroa.2.0.exp.sroa_idx, align 8
  %call16 = tail call i32 @gpr_time_cmp(i64 %6, i64 %7, i64 %agg.tmp15.sroa.0.0.copyload, i64 %agg.tmp15.sroa.2.0.copyload)
  %cmp17 = icmp sgt i32 %call16, 0
  br i1 %cmp17, label %if.then18, label %if.end19

if.then18:                                        ; preds = %if.end8
  tail call void (ptr, i32, i32, ptr, ...) @gpr_log(ptr noundef nonnull @.str.15, i32 noundef 329, i32 noundef 2, ptr noundef nonnull @.str.18)
  br label %return

if.end19:                                         ; preds = %if.end8
  %iss = getelementptr inbounds i8, ptr %claims, i64 8
  %8 = load ptr, ptr %iss, align 8
  %call.i = tail call noundef ptr @strchr(ptr noundef nonnull dereferenceable(1) %8, i32 noundef 64) #26
  %cmp.i = icmp eq ptr %call.i, null
  br i1 %cmp.i, label %if.end31, label %if.end.i

if.end.i:                                         ; preds = %if.end19
  %add.ptr.i = getelementptr inbounds i8, ptr %call.i, i64 1
  %9 = load i8, ptr %add.ptr.i, align 1
  %cmp1.i = icmp eq i8 %9, 0
  br i1 %cmp1.i, label %if.end31, label %if.end3.i

if.end3.i:                                        ; preds = %if.end.i
  %call4.i = tail call noundef ptr @strrchr(ptr noundef nonnull dereferenceable(1) %add.ptr.i, i32 noundef 46) #26
  %cmp5.i = icmp eq ptr %call4.i, null
  %cmp6.i = icmp eq ptr %call4.i, %add.ptr.i
  %or.cond.i = or i1 %cmp5.i, %cmp6.i
  br i1 %or.cond.i, label %land.lhs.true, label %do.body.i

do.body.i:                                        ; preds = %if.end3.i
  %cmp9.not.i = icmp ugt ptr %call4.i, %add.ptr.i
  br i1 %cmp9.not.i, label %do.end.i, label %if.then11.i

if.then11.i:                                      ; preds = %do.body.i
  tail call void @gpr_assertion_failed(ptr noundef nonnull @.str.15, i32 noundef 828, ptr noundef nonnull @.str.22) #25
  unreachable

do.end.i:                                         ; preds = %do.body.i
  %sub.ptr.lhs.cast.i = ptrtoint ptr %call4.i to i64
  %sub.ptr.rhs.cast.i = ptrtoint ptr %add.ptr.i to i64
  %sub.ptr.sub.i = sub i64 %sub.ptr.lhs.cast.i, %sub.ptr.rhs.cast.i
  %call13.i = tail call noundef ptr @_Z11gpr_memrchrPKvim(ptr noundef nonnull %add.ptr.i, i32 noundef 46, i64 noundef %sub.ptr.sub.i)
  br label %land.lhs.true

land.lhs.true:                                    ; preds = %do.end.i, %if.end3.i
  %10 = load ptr, ptr %claims, align 8
  %cmp22.not = icmp eq ptr %10, null
  br i1 %cmp22.not, label %if.end31, label %land.lhs.true23

land.lhs.true23:                                  ; preds = %land.lhs.true
  %11 = load ptr, ptr %iss, align 8
  %call26 = tail call i32 @strcmp(ptr noundef nonnull dereferenceable(1) %11, ptr noundef nonnull dereferenceable(1) %10) #26
  %cmp27.not = icmp eq i32 %call26, 0
  br i1 %cmp27.not, label %if.end31, label %if.then28

if.then28:                                        ; preds = %land.lhs.true23
  tail call void (ptr, i32, i32, ptr, ...) @gpr_log(ptr noundef nonnull @.str.15, i32 noundef 338, i32 noundef 2, ptr noundef nonnull @.str.19, ptr noundef %11, ptr noundef nonnull %10)
  br label %return

if.end31:                                         ; preds = %if.end.i, %if.end19, %land.lhs.true23, %land.lhs.true
  %cmp32 = icmp eq ptr %audience, null
  %aud = getelementptr inbounds i8, ptr %claims, i64 16
  %12 = load ptr, ptr %aud, align 8
  %cmp34 = icmp eq ptr %12, null
  br i1 %cmp32, label %if.then33, label %if.else

if.then33:                                        ; preds = %if.end31
  br i1 %cmp34, label %return, label %if.then42

if.else:                                          ; preds = %if.end31
  br i1 %cmp34, label %if.then42, label %if.end41

if.end41:                                         ; preds = %if.else
  %call38 = tail call i32 @strcmp(ptr noundef nonnull dereferenceable(1) %audience, ptr noundef nonnull dereferenceable(1) %12) #26
  %cmp39 = icmp eq i32 %call38, 0
  br i1 %cmp39, label %return, label %if.then42

if.then42:                                        ; preds = %if.then33, %if.else, %if.end41
  %cond = phi ptr [ %audience, %if.else ], [ %audience, %if.end41 ], [ @.str.21, %if.then33 ]
  %13 = phi ptr [ null, %if.else ], [ %12, %if.end41 ], [ %12, %if.then33 ]
  %cmp45 = icmp eq ptr %13, null
  %spec.select = select i1 %cmp45, ptr @.str.21, ptr %13
  tail call void (ptr, i32, i32, ptr, ...) @gpr_log(ptr noundef nonnull @.str.15, i32 noundef 350, i32 noundef 2, ptr noundef nonnull @.str.20, ptr noundef nonnull %cond, ptr noundef nonnull %spec.select)
  br label %return

return:                                           ; preds = %if.then33, %if.end41, %if.then42, %if.then28, %if.then18, %if.then7
  %retval.0 = phi i32 [ 5, %if.then7 ], [ 5, %if.then18 ], [ 6, %if.then28 ], [ 3, %if.then42 ], [ 0, %if.end41 ], [ 0, %if.then33 ]
  ret i32 %retval.0
}